target datalayout = "e-m:e-p270:32:32-p271:32:32-p272:64:64-i64:64-i128:128-f80:128-n8:16:32:64-S128"
target triple = "x86_64-pc-linux-gnu"

%struct.AVFilterContext = type { ptr, ptr, ptr, ptr, ptr, i32, ptr, ptr, i32, ptr, ptr, i32, i32, ptr, ptr, ptr, ptr, i32, ptr, i32, i32 }
%struct.AudioIIRContext = type { ptr, ptr, ptr, ptr, double, double, double, i32, i32, i32, i32, i32, i32, i32, i32, %struct.AVRational, ptr, ptr, i32, i32, ptr }
%struct.AVRational = type { i32, i32 }
%struct.IIRChannel = type { [2 x i32], [2 x ptr], double, [2 x ptr], double, ptr, i32 }
%struct.ThreadData = type { ptr, ptr }
%struct.AVChannelLayout = type { i32, i32, %union.anon.1, ptr }
%union.anon.1 = type { i64 }
%struct.AVFrame = type { [8 x ptr], [8 x i32], ptr, i32, i32, i32, i32, i32, %struct.AVRational, i64, i64, %struct.AVRational, i32, ptr, i32, i32, [8 x ptr], ptr, i32, ptr, i32, i32, i32, i32, i32, i32, i32, i64, ptr, i32, ptr, ptr, i64, i64, i64, i64, ptr, %struct.AVChannelLayout, i64 }

; Function Attrs: nounwind uwtable
define internal i32 @iir_ch_lattice_fltp(ptr noundef %0, ptr noundef %1, i32 noundef %2, i32 noundef %3) #1 {
  %5 = alloca ptr, align 8
  %6 = alloca ptr, align 8
  %7 = alloca i32, align 4
  %8 = alloca i32, align 4
  %9 = alloca ptr, align 8
  %10 = alloca double, align 8
  %11 = alloca double, align 8
  %12 = alloca double, align 8
  %13 = alloca ptr, align 8
  %14 = alloca ptr, align 8
  %15 = alloca ptr, align 8
  %16 = alloca ptr, align 8
  %17 = alloca double, align 8
  %18 = alloca double, align 8
  %19 = alloca double, align 8
  %20 = alloca ptr, align 8
  %21 = alloca i32, align 4
  %22 = alloca ptr, align 8
  %23 = alloca ptr, align 8
  %24 = alloca double, align 8
  %25 = alloca ptr, align 8
  %26 = alloca ptr, align 8
  %27 = alloca i32, align 4
  %28 = alloca double, align 8
  %29 = alloca double, align 8
  %30 = alloca i32, align 4
  store ptr %0, ptr %5, align 8, !tbaa !4
  store ptr %1, ptr %6, align 8, !tbaa !45
  store i32 %2, ptr %7, align 4, !tbaa !43
  store i32 %3, ptr %8, align 4, !tbaa !43
  call void @llvm.lifetime.start.p0(i64 8, ptr %9) #12
  %31 = load ptr, ptr %5, align 8, !tbaa !4
  %32 = getelementptr inbounds nuw %struct.AVFilterContext, ptr %31, i32 0, i32 9
  %33 = load ptr, ptr %32, align 8, !tbaa !9
  store ptr %33, ptr %9, align 8, !tbaa !22
  call void @llvm.lifetime.start.p0(i64 8, ptr %10) #12
  %34 = load ptr, ptr %9, align 8, !tbaa !22
  %35 = getelementptr inbounds nuw %struct.AudioIIRContext, ptr %34, i32 0, i32 4
  %36 = load double, ptr %35, align 8, !tbaa !153
  store double %36, ptr %10, align 8, !tbaa !95
  call void @llvm.lifetime.start.p0(i64 8, ptr %11) #12
  %37 = load ptr, ptr %9, align 8, !tbaa !22
  %38 = getelementptr inbounds nuw %struct.AudioIIRContext, ptr %37, i32 0, i32 5
  %39 = load double, ptr %38, align 8, !tbaa !154
  store double %39, ptr %11, align 8, !tbaa !95
  call void @llvm.lifetime.start.p0(i64 8, ptr %12) #12
  %40 = load ptr, ptr %9, align 8, !tbaa !22
  %41 = getelementptr inbounds nuw %struct.AudioIIRContext, ptr %40, i32 0, i32 6
  %42 = load double, ptr %41, align 8, !tbaa !155
  store double %42, ptr %12, align 8, !tbaa !95
  call void @llvm.lifetime.start.p0(i64 8, ptr %13) #12
  %43 = load ptr, ptr %6, align 8, !tbaa !45
  store ptr %43, ptr %13, align 8, !tbaa !156
  call void @llvm.lifetime.start.p0(i64 8, ptr %14) #12
  %44 = load ptr, ptr %13, align 8, !tbaa !156
  %45 = getelementptr inbounds nuw %struct.ThreadData, ptr %44, i32 0, i32 0
  %46 = load ptr, ptr %45, align 8, !tbaa !75
  store ptr %46, ptr %14, align 8, !tbaa !60
  call void @llvm.lifetime.start.p0(i64 8, ptr %15) #12
  %47 = load ptr, ptr %13, align 8, !tbaa !156
  %48 = getelementptr inbounds nuw %struct.ThreadData, ptr %47, i32 0, i32 1
  %49 = load ptr, ptr %48, align 8, !tbaa !77
  store ptr %49, ptr %15, align 8, !tbaa !60
  call void @llvm.lifetime.start.p0(i64 8, ptr %16) #12
  %50 = load ptr, ptr %14, align 8, !tbaa !60
  %51 = getelementptr inbounds nuw %struct.AVFrame, ptr %50, i32 0, i32 2
  %52 = load ptr, ptr %51, align 8, !tbaa !158
  %53 = load i32, ptr %7, align 4, !tbaa !43
  %54 = sext i32 %53 to i64
  %55 = getelementptr inbounds ptr, ptr %52, i64 %54
  %56 = load ptr, ptr %55, align 8, !tbaa !42
  store ptr %56, ptr %16, align 8, !tbaa !172
  call void @llvm.lifetime.start.p0(i64 8, ptr %17) #12
  call void @llvm.lifetime.start.p0(i64 8, ptr %18) #12
  call void @llvm.lifetime.start.p0(i64 8, ptr %19) #12
  call void @llvm.lifetime.start.p0(i64 8, ptr %20) #12
  %57 = load ptr, ptr %9, align 8, !tbaa !22
  %58 = getelementptr inbounds nuw %struct.AudioIIRContext, ptr %57, i32 0, i32 17
  %59 = load ptr, ptr %58, align 8, !tbaa !47
  %60 = load i32, ptr %7, align 4, !tbaa !43
  %61 = sext i32 %60 to i64
  %62 = getelementptr inbounds %struct.IIRChannel, ptr %59, i64 %61
  %63 = getelementptr inbounds nuw %struct.IIRChannel, ptr %62, i32 0, i32 3
  %64 = getelementptr inbounds [2 x ptr], ptr %63, i64 0, i64 0
  %65 = load ptr, ptr %64, align 8, !tbaa !94
  store ptr %65, ptr %20, align 8, !tbaa !94
  call void @llvm.lifetime.start.p0(i64 4, ptr %21) #12
  %66 = load ptr, ptr %9, align 8, !tbaa !22
  %67 = getelementptr inbounds nuw %struct.AudioIIRContext, ptr %66, i32 0, i32 17
  %68 = load ptr, ptr %67, align 8, !tbaa !47
  %69 = load i32, ptr %7, align 4, !tbaa !43
  %70 = sext i32 %69 to i64
  %71 = getelementptr inbounds %struct.IIRChannel, ptr %68, i64 %70
  %72 = getelementptr inbounds nuw %struct.IIRChannel, ptr %71, i32 0, i32 0
  %73 = getelementptr inbounds [2 x i32], ptr %72, i64 0, i64 1
  %74 = load i32, ptr %73, align 4, !tbaa !43
  store i32 %74, ptr %21, align 4, !tbaa !43
  call void @llvm.lifetime.start.p0(i64 8, ptr %22) #12
  %75 = load ptr, ptr %9, align 8, !tbaa !22
  %76 = getelementptr inbounds nuw %struct.AudioIIRContext, ptr %75, i32 0, i32 17
  %77 = load ptr, ptr %76, align 8, !tbaa !47
  %78 = load i32, ptr %7, align 4, !tbaa !43
  %79 = sext i32 %78 to i64
  %80 = getelementptr inbounds %struct.IIRChannel, ptr %77, i64 %79
  %81 = getelementptr inbounds nuw %struct.IIRChannel, ptr %80, i32 0, i32 1
  %82 = getelementptr inbounds [2 x ptr], ptr %81, i64 0, i64 0
  %83 = load ptr, ptr %82, align 8, !tbaa !94
  store ptr %83, ptr %22, align 8, !tbaa !94
  call void @llvm.lifetime.start.p0(i64 8, ptr %23) #12
  %84 = load ptr, ptr %9, align 8, !tbaa !22
  %85 = getelementptr inbounds nuw %struct.AudioIIRContext, ptr %84, i32 0, i32 17
  %86 = load ptr, ptr %85, align 8, !tbaa !47
  %87 = load i32, ptr %7, align 4, !tbaa !43
  %88 = sext i32 %87 to i64
  %89 = getelementptr inbounds %struct.IIRChannel, ptr %86, i64 %88
  %90 = getelementptr inbounds nuw %struct.IIRChannel, ptr %89, i32 0, i32 1
  %91 = getelementptr inbounds [2 x ptr], ptr %90, i64 0, i64 1
  %92 = load ptr, ptr %91, align 8, !tbaa !94
  store ptr %92, ptr %23, align 8, !tbaa !94
  call void @llvm.lifetime.start.p0(i64 8, ptr %24) #12
  %93 = load ptr, ptr %9, align 8, !tbaa !22
  %94 = getelementptr inbounds nuw %struct.AudioIIRContext, ptr %93, i32 0, i32 17
  %95 = load ptr, ptr %94, align 8, !tbaa !47
  %96 = load i32, ptr %7, align 4, !tbaa !43
  %97 = sext i32 %96 to i64
  %98 = getelementptr inbounds %struct.IIRChannel, ptr %95, i64 %97
  %99 = getelementptr inbounds nuw %struct.IIRChannel, ptr %98, i32 0, i32 2
  %100 = load double, ptr %99, align 8, !tbaa !97
  store double %100, ptr %24, align 8, !tbaa !95
  call void @llvm.lifetime.start.p0(i64 8, ptr %25) #12
  %101 = load ptr, ptr %9, align 8, !tbaa !22
  %102 = getelementptr inbounds nuw %struct.AudioIIRContext, ptr %101, i32 0, i32 17
  %103 = load ptr, ptr %102, align 8, !tbaa !47
  %104 = load i32, ptr %7, align 4, !tbaa !43
  %105 = sext i32 %104 to i64
  %106 = getelementptr inbounds %struct.IIRChannel, ptr %103, i64 %105
  %107 = getelementptr inbounds nuw %struct.IIRChannel, ptr %106, i32 0, i32 6
  store ptr %107, ptr %25, align 8, !tbaa !159
  call void @llvm.lifetime.start.p0(i64 8, ptr %26) #12
  %108 = load ptr, ptr %15, align 8, !tbaa !60
  %109 = getelementptr inbounds nuw %struct.AVFrame, ptr %108, i32 0, i32 2
  %110 = load ptr, ptr %109, align 8, !tbaa !158
  %111 = load i32, ptr %7, align 4, !tbaa !43
  %112 = sext i32 %111 to i64
  %113 = getelementptr inbounds ptr, ptr %110, i64 %112
  %114 = load ptr, ptr %113, align 8, !tbaa !42
  store ptr %114, ptr %26, align 8, !tbaa !172
  call void @llvm.lifetime.start.p0(i64 4, ptr %27) #12
  store i32 0, ptr %27, align 4, !tbaa !43
  br label %115

115:                                              ; preds = %216, %4
  %116 = load i32, ptr %27, align 4, !tbaa !43
  %117 = load ptr, ptr %14, align 8, !tbaa !60
  %118 = getelementptr inbounds nuw %struct.AVFrame, ptr %117, i32 0, i32 5
  %119 = load i32, ptr %118, align 8, !tbaa !69
  %120 = icmp slt i32 %116, %119
  br i1 %120, label %121, label %219

121:                                              ; preds = %115
  call void @llvm.lifetime.start.p0(i64 8, ptr %28) #12
  %122 = load ptr, ptr %16, align 8, !tbaa !172
  %123 = load i32, ptr %27, align 4, !tbaa !43
  %124 = sext i32 %123 to i64
  %125 = getelementptr inbounds float, ptr %122, i64 %124
  %126 = load float, ptr %125, align 4, !tbaa !174
  %127 = fpext nsz float %126 to double
  %128 = load double, ptr %10, align 8, !tbaa !95
  %129 = fmul nsz double %127, %128
  store double %129, ptr %28, align 8, !tbaa !95
  call void @llvm.lifetime.start.p0(i64 8, ptr %29) #12
  store double 0.000000e+00, ptr %29, align 8, !tbaa !95
  %130 = load double, ptr %28, align 8, !tbaa !95
  store double %130, ptr %18, align 8, !tbaa !95
  call void @llvm.lifetime.start.p0(i64 4, ptr %30) #12
  %131 = load i32, ptr %21, align 4, !tbaa !43
  %132 = sub nsw i32 %131, 1
  store i32 %132, ptr %30, align 4, !tbaa !43
  br label %133

133:                                              ; preds = %178, %121
  %134 = load i32, ptr %30, align 4, !tbaa !43
  %135 = icmp sge i32 %134, 0
  br i1 %135, label %137, label %136

136:                                              ; preds = %133
  call void @llvm.lifetime.end.p0(i64 4, ptr %30) #12
  br label %181

137:                                              ; preds = %133
  %138 = load double, ptr %18, align 8, !tbaa !95
  %139 = load ptr, ptr %23, align 8, !tbaa !94
  %140 = load i32, ptr %30, align 4, !tbaa !43
  %141 = sext i32 %140 to i64
  %142 = getelementptr inbounds double, ptr %139, i64 %141
  %143 = load double, ptr %142, align 8, !tbaa !95
  %144 = load ptr, ptr %20, align 8, !tbaa !94
  %145 = load i32, ptr %30, align 4, !tbaa !43
  %146 = sext i32 %145 to i64
  %147 = getelementptr inbounds double, ptr %144, i64 %146
  %148 = load double, ptr %147, align 8, !tbaa !95
  %149 = fneg nsz double %143
  %150 = call nsz double @llvm.fmuladd.f64(double %149, double %148, double %138)
  store double %150, ptr %17, align 8, !tbaa !95
  %151 = load double, ptr %17, align 8, !tbaa !95
  %152 = load ptr, ptr %23, align 8, !tbaa !94
  %153 = load i32, ptr %30, align 4, !tbaa !43
  %154 = sext i32 %153 to i64
  %155 = getelementptr inbounds double, ptr %152, i64 %154
  %156 = load double, ptr %155, align 8, !tbaa !95
  %157 = load ptr, ptr %20, align 8, !tbaa !94
  %158 = load i32, ptr %30, align 4, !tbaa !43
  %159 = sext i32 %158 to i64
  %160 = getelementptr inbounds double, ptr %157, i64 %159
  %161 = load double, ptr %160, align 8, !tbaa !95
  %162 = call nsz double @llvm.fmuladd.f64(double %151, double %156, double %161)
  store double %162, ptr %19, align 8, !tbaa !95
  %163 = load double, ptr %19, align 8, !tbaa !95
  %164 = load ptr, ptr %22, align 8, !tbaa !94
  %165 = load i32, ptr %30, align 4, !tbaa !43
  %166 = add nsw i32 %165, 1
  %167 = sext i32 %166 to i64
  %168 = getelementptr inbounds double, ptr %164, i64 %167
  %169 = load double, ptr %168, align 8, !tbaa !95
  %170 = load double, ptr %29, align 8, !tbaa !95
  %171 = call nsz double @llvm.fmuladd.f64(double %163, double %169, double %170)
  store double %171, ptr %29, align 8, !tbaa !95
  %172 = load double, ptr %19, align 8, !tbaa !95
  %173 = load ptr, ptr %20, align 8, !tbaa !94
  %174 = load i32, ptr %30, align 4, !tbaa !43
  %175 = sext i32 %174 to i64
  %176 = getelementptr inbounds double, ptr %173, i64 %175
  store double %172, ptr %176, align 8, !tbaa !95
  %177 = load double, ptr %17, align 8, !tbaa !95
  store double %177, ptr %18, align 8, !tbaa !95
  br label %178

178:                                              ; preds = %137
  %179 = load i32, ptr %30, align 4, !tbaa !43
  %180 = add nsw i32 %179, -1
  store i32 %180, ptr %30, align 4, !tbaa !43
  br label %133, !llvm.loop !206

181:                                              ; preds = %136
  %182 = load double, ptr %18, align 8, !tbaa !95
  %183 = load ptr, ptr %22, align 8, !tbaa !94
  %184 = getelementptr inbounds double, ptr %183, i64 0
  %185 = load double, ptr %184, align 8, !tbaa !95
  %186 = load double, ptr %29, align 8, !tbaa !95
  %187 = call nsz double @llvm.fmuladd.f64(double %182, double %185, double %186)
  store double %187, ptr %29, align 8, !tbaa !95
  %188 = load ptr, ptr %20, align 8, !tbaa !94
  %189 = getelementptr inbounds double, ptr %188, i64 1
  %190 = load ptr, ptr %20, align 8, !tbaa !94
  %191 = getelementptr inbounds double, ptr %190, i64 0
  %192 = load i32, ptr %21, align 4, !tbaa !43
  %193 = sext i32 %192 to i64
  %194 = mul i64 %193, 8
  call void @llvm.memmove.p0.p0.i64(ptr align 8 %189, ptr align 8 %191, i64 %194, i1 false)
  %195 = load double, ptr %18, align 8, !tbaa !95
  %196 = load ptr, ptr %20, align 8, !tbaa !94
  %197 = getelementptr inbounds double, ptr %196, i64 0
  store double %195, ptr %197, align 8, !tbaa !95
  %198 = load double, ptr %11, align 8, !tbaa !95
  %199 = load double, ptr %24, align 8, !tbaa !95
  %200 = fmul nsz double %198, %199
  %201 = load double, ptr %29, align 8, !tbaa !95
  %202 = fmul nsz double %201, %200
  store double %202, ptr %29, align 8, !tbaa !95
  %203 = load double, ptr %29, align 8, !tbaa !95
  %204 = load double, ptr %12, align 8, !tbaa !95
  %205 = load double, ptr %28, align 8, !tbaa !95
  %206 = load double, ptr %12, align 8, !tbaa !95
  %207 = fsub nsz double 1.000000e+00, %206
  %208 = fmul nsz double %205, %207
  %209 = call nsz double @llvm.fmuladd.f64(double %203, double %204, double %208)
  store double %209, ptr %29, align 8, !tbaa !95
  %210 = load double, ptr %29, align 8, !tbaa !95
  %211 = fptrunc nsz double %210 to float
  %212 = load ptr, ptr %26, align 8, !tbaa !172
  %213 = load i32, ptr %27, align 4, !tbaa !43
  %214 = sext i32 %213 to i64
  %215 = getelementptr inbounds float, ptr %212, i64 %214
  store float %211, ptr %215, align 4, !tbaa !174
  call void @llvm.lifetime.end.p0(i64 8, ptr %29) #12
  call void @llvm.lifetime.end.p0(i64 8, ptr %28) #12
  br label %216

216:                                              ; preds = %181
  %217 = load i32, ptr %27, align 4, !tbaa !43
  %218 = add nsw i32 %217, 1
  store i32 %218, ptr %27, align 4, !tbaa !43
  br label %115, !llvm.loop !207

219:                                              ; preds = %115
  call void @llvm.lifetime.end.p0(i64 4, ptr %27) #12
  call void @llvm.lifetime.end.p0(i64 8, ptr %26) #12
  call void @llvm.lifetime.end.p0(i64 8, ptr %25) #12
  call void @llvm.lifetime.end.p0(i64 8, ptr %24) #12
  call void @llvm.lifetime.end.p0(i64 8, ptr %23) #12
  call void @llvm.lifetime.end.p0(i64 8, ptr %22) #12
  call void @llvm.lifetime.end.p0(i64 4, ptr %21) #12
  call void @llvm.lifetime.end.p0(i64 8, ptr %20) #12
  call void @llvm.lifetime.end.p0(i64 8, ptr %19) #12
  call void @llvm.lifetime.end.p0(i64 8, ptr %18) #12
  call void @llvm.lifetime.end.p0(i64 8, ptr %17) #12
  call void @llvm.lifetime.end.p0(i64 8, ptr %16) #12
  call void @llvm.lifetime.end.p0(i64 8, ptr %15) #12
  call void @llvm.lifetime.end.p0(i64 8, ptr %14) #12
  call void @llvm.lifetime.end.p0(i64 8, ptr %13) #12
  call void @llvm.lifetime.end.p0(i64 8, ptr %12) #12
  call void @llvm.lifetime.end.p0(i64 8, ptr %11) #12
  call void @llvm.lifetime.end.p0(i64 8, ptr %10) #12
  call void @llvm.lifetime.end.p0(i64 8, ptr %9) #12
  ret i32 0
}